; Function Attrs: nofree norecurse nosync nounwind memory(readwrite, inaccessiblemem: none) uwtable
define i32 @ZSTD_insertAndFindFirstIndex(ptr noundef captures(none) %0, ptr noundef %1) local_unnamed_addr #0 {
  %3 = getelementptr inbounds nuw i8, ptr %0, i64 272
  %4 = load i32, ptr %3, align 8, !tbaa !22
  %5 = getelementptr inbounds nuw i8, ptr %0, i64 112
  %6 = load ptr, ptr %5, align 8, !tbaa !16
  %7 = getelementptr inbounds nuw i8, ptr %0, i64 264
  %8 = load i32, ptr %7, align 4, !tbaa !33
  %9 = getelementptr inbounds nuw i8, ptr %0, i64 128
  %10 = load ptr, ptr %9, align 8, !tbaa !17
  %11 = getelementptr inbounds nuw i8, ptr %0, i64 260
  %12 = load i32, ptr %11, align 4, !tbaa !34
  %notmask.i = shl nsw i32 -1, %12
  %13 = xor i32 %notmask.i, -1
  %14 = getelementptr inbounds nuw i8, ptr %0, i64 8
  %15 = load ptr, ptr %14, align 8, !tbaa !3
  %16 = ptrtoint ptr %1 to i64
  %17 = ptrtoint ptr %15 to i64
  %18 = sub i64 %16, %17
  %19 = trunc i64 %18 to i32
  %20 = getelementptr inbounds nuw i8, ptr %0, i64 44
  %21 = load i32, ptr %20, align 4, !tbaa !19
  %22 = icmp ult i32 %21, %19
  br i1 %22, label %.lr.ph, label %._crit_edge

.lr.ph:                                           ; preds = %2
  %23 = sub i32 64, %8
  %24 = zext nneg i32 %23 to i64
  %25 = sub i32 32, %8
  %26 = zext i32 %21 to i64
  %27 = and i64 %18, 4294967295
  switch i32 %4, label %ZSTD_hashPtr.exit32.i [
    i32 8, label %ZSTD_hashPtr.exit32.i.us
    i32 5, label %ZSTD_hashPtr.exit32.i.us17
    i32 6, label %ZSTD_hashPtr.exit32.i.us21
    i32 7, label %ZSTD_hashPtr.exit32.i.us25
  ]

ZSTD_hashPtr.exit32.i.us:                         ; preds = %.lr.ph, %ZSTD_hashPtr.exit32.i.us
  %indvars.iv38 = phi i64 [ %indvars.iv.next39, %ZSTD_hashPtr.exit32.i.us ], [ %26, %.lr.ph ]
  %28 = getelementptr inbounds nuw i8, ptr %15, i64 %indvars.iv38
  %.val12.us = load i64, ptr %28, align 1, !tbaa !24
  %29 = mul i64 %.val12.us, -3523014627327384477
  %30 = lshr i64 %29, %24
  %31 = getelementptr inbounds nuw i32, ptr %6, i64 %30
  %32 = load i32, ptr %31, align 4, !tbaa !23
  %33 = trunc nuw i64 %indvars.iv38 to i32
  %34 = and i32 %33, %13
  %35 = zext nneg i32 %34 to i64
  %36 = getelementptr inbounds nuw i32, ptr %10, i64 %35
  store i32 %32, ptr %36, align 4, !tbaa !23
  store i32 %33, ptr %31, align 4, !tbaa !23
  %indvars.iv.next39 = add nuw nsw i64 %indvars.iv38, 1
  %37 = icmp samesign ult i64 %indvars.iv.next39, %27
  br i1 %37, label %ZSTD_hashPtr.exit32.i.us, label %._crit_edge

ZSTD_hashPtr.exit32.i.us17:                       ; preds = %.lr.ph, %ZSTD_hashPtr.exit32.i.us17
  %indvars.iv35 = phi i64 [ %indvars.iv.next36, %ZSTD_hashPtr.exit32.i.us17 ], [ %26, %.lr.ph ]
  %38 = getelementptr inbounds nuw i8, ptr %15, i64 %indvars.iv35
  %.val6.us = load i64, ptr %38, align 1, !tbaa !24
  %39 = mul i64 %.val6.us, -3523014627271114752
  %40 = lshr i64 %39, %24
  %41 = getelementptr inbounds nuw i32, ptr %6, i64 %40
  %42 = load i32, ptr %41, align 4, !tbaa !23
  %43 = trunc nuw i64 %indvars.iv35 to i32
  %44 = and i32 %43, %13
  %45 = zext nneg i32 %44 to i64
  %46 = getelementptr inbounds nuw i32, ptr %10, i64 %45
  store i32 %42, ptr %46, align 4, !tbaa !23
  store i32 %43, ptr %41, align 4, !tbaa !23
  %indvars.iv.next36 = add nuw nsw i64 %indvars.iv35, 1
  %47 = icmp samesign ult i64 %indvars.iv.next36, %27
  br i1 %47, label %ZSTD_hashPtr.exit32.i.us17, label %._crit_edge

ZSTD_hashPtr.exit32.i.us21:                       ; preds = %.lr.ph, %ZSTD_hashPtr.exit32.i.us21
  %indvars.iv32 = phi i64 [ %indvars.iv.next33, %ZSTD_hashPtr.exit32.i.us21 ], [ %26, %.lr.ph ]
  %48 = getelementptr inbounds nuw i8, ptr %15, i64 %indvars.iv32
  %.val8.us = load i64, ptr %48, align 1, !tbaa !24
  %49 = mul i64 %.val8.us, -3523014627193847808
  %50 = lshr i64 %49, %24
  %51 = getelementptr inbounds nuw i32, ptr %6, i64 %50
  %52 = load i32, ptr %51, align 4, !tbaa !23
  %53 = trunc nuw i64 %indvars.iv32 to i32
  %54 = and i32 %53, %13
  %55 = zext nneg i32 %54 to i64
  %56 = getelementptr inbounds nuw i32, ptr %10, i64 %55
  store i32 %52, ptr %56, align 4, !tbaa !23
  store i32 %53, ptr %51, align 4, !tbaa !23
  %indvars.iv.next33 = add nuw nsw i64 %indvars.iv32, 1
  %57 = icmp samesign ult i64 %indvars.iv.next33, %27
  br i1 %57, label %ZSTD_hashPtr.exit32.i.us21, label %._crit_edge

ZSTD_hashPtr.exit32.i.us25:                       ; preds = %.lr.ph, %ZSTD_hashPtr.exit32.i.us25
  %indvars.iv = phi i64 [ %indvars.iv.next, %ZSTD_hashPtr.exit32.i.us25 ], [ %26, %.lr.ph ]
  %58 = getelementptr inbounds nuw i8, ptr %15, i64 %indvars.iv
  %.val10.us = load i64, ptr %58, align 1, !tbaa !24
  %59 = mul i64 %.val10.us, -3523014627193167104
  %60 = lshr i64 %59, %24
  %61 = getelementptr inbounds nuw i32, ptr %6, i64 %60
  %62 = load i32, ptr %61, align 4, !tbaa !23
  %63 = trunc nuw i64 %indvars.iv to i32
  %64 = and i32 %63, %13
  %65 = zext nneg i32 %64 to i64
  %66 = getelementptr inbounds nuw i32, ptr %10, i64 %65
  store i32 %62, ptr %66, align 4, !tbaa !23
  store i32 %63, ptr %61, align 4, !tbaa !23
  %indvars.iv.next = add nuw nsw i64 %indvars.iv, 1
  %67 = icmp samesign ult i64 %indvars.iv.next, %27
  br i1 %67, label %ZSTD_hashPtr.exit32.i.us25, label %._crit_edge

ZSTD_hashPtr.exit32.i:                            ; preds = %.lr.ph, %ZSTD_hashPtr.exit32.i
  %indvars.iv41 = phi i64 [ %indvars.iv.next42, %ZSTD_hashPtr.exit32.i ], [ %26, %.lr.ph ]
  %68 = getelementptr inbounds nuw i8, ptr %15, i64 %indvars.iv41
  %.val = load i32, ptr %68, align 1, !tbaa !23
  %69 = mul i32 %.val, -1640531535
  %70 = lshr i32 %69, %25
  %71 = zext i32 %70 to i64
  %72 = getelementptr inbounds nuw i32, ptr %6, i64 %71
  %73 = load i32, ptr %72, align 4, !tbaa !23
  %74 = trunc nuw i64 %indvars.iv41 to i32
  %75 = and i32 %74, %13
  %76 = zext nneg i32 %75 to i64
  %77 = getelementptr inbounds nuw i32, ptr %10, i64 %76
  store i32 %73, ptr %77, align 4, !tbaa !23
  store i32 %74, ptr %72, align 4, !tbaa !23
  %indvars.iv.next42 = add nuw nsw i64 %indvars.iv41, 1
  %78 = icmp samesign ult i64 %indvars.iv.next42, %27
  br i1 %78, label %ZSTD_hashPtr.exit32.i, label %._crit_edge

._crit_edge:                                      ; preds = %ZSTD_hashPtr.exit32.i.us25, %ZSTD_hashPtr.exit32.i.us21, %ZSTD_hashPtr.exit32.i.us17, %ZSTD_hashPtr.exit32.i.us, %ZSTD_hashPtr.exit32.i, %2
  store i32 %19, ptr %20, align 4, !tbaa !19
  switch i32 %4, label %79 [
    i32 8, label %99
    i32 5, label %84
    i32 6, label %89
    i32 7, label %94
  ]

79:                                               ; preds = %._crit_edge
  %.val5 = load i32, ptr %1, align 1, !tbaa !23
  %80 = mul i32 %.val5, -1640531535
  %81 = sub i32 32, %8
  %82 = lshr i32 %80, %81
  %83 = zext i32 %82 to i64
  br label %ZSTD_insertAndFindFirstIndex_internal.exit

84:                                               ; preds = %._crit_edge
  %.val7 = load i64, ptr %1, align 1, !tbaa !24
  %85 = mul i64 %.val7, -3523014627271114752
  %86 = sub i32 64, %8
  %87 = zext nneg i32 %86 to i64
  %88 = lshr i64 %85, %87
  br label %ZSTD_insertAndFindFirstIndex_internal.exit

89:                                               ; preds = %._crit_edge
  %.val9 = load i64, ptr %1, align 1, !tbaa !24
  %90 = mul i64 %.val9, -3523014627193847808
  %91 = sub i32 64, %8
  %92 = zext nneg i32 %91 to i64
  %93 = lshr i64 %90, %92
  br label %ZSTD_insertAndFindFirstIndex_internal.exit

94:                                               ; preds = %._crit_edge
  %.val11 = load i64, ptr %1, align 1, !tbaa !24
  %95 = mul i64 %.val11, -3523014627193167104
  %96 = sub i32 64, %8
  %97 = zext nneg i32 %96 to i64
  %98 = lshr i64 %95, %97
  br label %ZSTD_insertAndFindFirstIndex_internal.exit

99:                                               ; preds = %._crit_edge
  %.val13 = load i64, ptr %1, align 1, !tbaa !24
  %100 = mul i64 %.val13, -3523014627327384477
  %101 = sub i32 64, %8
  %102 = zext nneg i32 %101 to i64
  %103 = lshr i64 %100, %102
  br label %ZSTD_insertAndFindFirstIndex_internal.exit

ZSTD_insertAndFindFirstIndex_internal.exit:       ; preds = %79, %84, %89, %94, %99
  %.0.i.i = phi i64 [ %83, %79 ], [ %98, %94 ], [ %93, %89 ], [ %88, %84 ], [ %103, %99 ]
  %104 = getelementptr inbounds nuw i32, ptr %6, i64 %.0.i.i
  %105 = load i32, ptr %104, align 4, !tbaa !23
  ret i32 %105
}